target datalayout = "e-m:e-p270:32:32-p271:32:32-p272:64:64-i64:64-i128:128-f80:128-n8:16:32:64-S128"
target triple = "x86_64-pc-linux-gnu"

%struct._address = type { i32, i32, ptr, ptr }
%struct.conversation_element = type { i32, %union.anon }
%union.anon = type { %struct._address }
%struct.anon = type { ptr, i64 }
%struct.conversation = type { ptr, ptr, ptr, i32, i32, i32, ptr, ptr, i32, ptr }

@conversation_hashtable_element_list = internal global ptr null, align 8
@new_index = internal global i32 0, align 4
@.str = private unnamed_addr constant [29 x i8] c"%s:%u: failed assertion \22%s\22\00", align 1
@.str.1 = private unnamed_addr constant [20 x i8] c"epan/conversation.c\00", align 1
@.str.2 = private unnamed_addr constant [9 x i8] c"elements\00", align 1
@.str.28 = private unnamed_addr constant [10 x i8] c"count < 8\00", align 1
@.str.29 = private unnamed_addr constant [10 x i8] c"count > 1\00", align 1

; Function Attrs: inlinehint nounwind null_pointer_is_valid sspstrong uwtable
define internal void @clear_address(ptr noundef %0) #9 {
  %2 = alloca ptr, align 8
  store ptr %0, ptr %2, align 8
  %3 = load ptr, ptr %2, align 8
  %4 = getelementptr inbounds nuw %struct._address, ptr %3, i32 0, i32 0
  store i32 0, ptr %4, align 8
  %5 = load ptr, ptr %2, align 8
  %6 = getelementptr inbounds nuw %struct._address, ptr %5, i32 0, i32 1
  store i32 0, ptr %6, align 4
  %7 = load ptr, ptr %2, align 8
  %8 = getelementptr inbounds nuw %struct._address, ptr %7, i32 0, i32 2
  store ptr null, ptr %8, align 8
  %9 = load ptr, ptr %2, align 8
  %10 = getelementptr inbounds nuw %struct._address, ptr %9, i32 0, i32 3
  store ptr null, ptr %10, align 8
  ret void
}

; Function Attrs: inlinehint null_pointer_is_valid sspstrong uwtable
define internal void @alloc_address_wmem(ptr noundef %0, ptr noundef %1, i32 noundef %2, i32 noundef %3, ptr noundef %4) #7 {
  %6 = alloca ptr, align 8
  %7 = alloca ptr, align 8
  %8 = alloca i32, align 4
  %9 = alloca i32, align 4
  %10 = alloca ptr, align 8
  store ptr %0, ptr %6, align 8
  store ptr %1, ptr %7, align 8
  store i32 %2, ptr %8, align 4
  store i32 %3, ptr %9, align 4
  store ptr %4, ptr %10, align 8
  br label %11

11:                                               ; preds = %5
  br label %12

12:                                               ; preds = %11
  %13 = load ptr, ptr %7, align 8
  call void @clear_address(ptr noundef %13)
  %14 = load i32, ptr %8, align 4
  %15 = load ptr, ptr %7, align 8
  %16 = getelementptr inbounds nuw %struct._address, ptr %15, i32 0, i32 0
  store i32 %14, ptr %16, align 8
  %17 = load i32, ptr %9, align 4
  %18 = icmp eq i32 %17, 0
  br i1 %18, label %19, label %22

19:                                               ; preds = %12
  br label %20

20:                                               ; preds = %19
  br label %21

21:                                               ; preds = %20
  br label %39

22:                                               ; preds = %12
  br label %23

23:                                               ; preds = %22
  br label %24

24:                                               ; preds = %23
  br label %25

25:                                               ; preds = %24
  br label %26

26:                                               ; preds = %25
  %27 = load ptr, ptr %6, align 8
  %28 = load ptr, ptr %10, align 8
  %29 = load i32, ptr %9, align 4
  %30 = sext i32 %29 to i64
  %31 = call ptr @wmem_memdup(ptr noundef %27, ptr noundef %28, i64 noundef %30) #15
  %32 = load ptr, ptr %7, align 8
  %33 = getelementptr inbounds nuw %struct._address, ptr %32, i32 0, i32 3
  store ptr %31, ptr %33, align 8
  %34 = load ptr, ptr %7, align 8
  %35 = getelementptr inbounds nuw %struct._address, ptr %34, i32 0, i32 2
  store ptr %31, ptr %35, align 8
  %36 = load i32, ptr %9, align 4
  %37 = load ptr, ptr %7, align 8
  %38 = getelementptr inbounds nuw %struct._address, ptr %37, i32 0, i32 1
  store i32 %36, ptr %38, align 4
  br label %39

39:                                               ; preds = %26, %21
  ret void
}

; Function Attrs: inlinehint null_pointer_is_valid sspstrong uwtable
define internal void @copy_address_wmem(ptr noundef %0, ptr noundef %1, ptr noundef %2) #7 {
  %4 = alloca ptr, align 8
  %5 = alloca ptr, align 8
  %6 = alloca ptr, align 8
  store ptr %0, ptr %4, align 8
  store ptr %1, ptr %5, align 8
  store ptr %2, ptr %6, align 8
  %7 = load ptr, ptr %4, align 8
  %8 = load ptr, ptr %5, align 8
  %9 = load ptr, ptr %6, align 8
  %10 = getelementptr inbounds nuw %struct._address, ptr %9, i32 0, i32 0
  %11 = load i32, ptr %10, align 8
  %12 = load ptr, ptr %6, align 8
  %13 = getelementptr inbounds nuw %struct._address, ptr %12, i32 0, i32 1
  %14 = load i32, ptr %13, align 4
  %15 = load ptr, ptr %6, align 8
  %16 = getelementptr inbounds nuw %struct._address, ptr %15, i32 0, i32 2
  %17 = load ptr, ptr %16, align 8
  call void @alloc_address_wmem(ptr noundef %7, ptr noundef %8, i32 noundef %11, i32 noundef %14, ptr noundef %17)
  ret void
}

; Function Attrs: null_pointer_is_valid sspstrong uwtable
define internal i64 @conversation_element_count(ptr noundef %0) #0 {
  %2 = alloca ptr, align 8
  %3 = alloca i64, align 8
  store ptr %0, ptr %2, align 8
  call void @llvm.lifetime.start.p0(i64 8, ptr %3) #12
  store i64 0, ptr %3, align 8
  br label %4

4:                                                ; preds = %19, %1
  %5 = load ptr, ptr %2, align 8
  %6 = load i64, ptr %3, align 8
  %7 = getelementptr %struct.conversation_element, ptr %5, i64 %6
  %8 = getelementptr inbounds nuw %struct.conversation_element, ptr %7, i32 0, i32 0
  %9 = load i32, ptr %8, align 8
  %10 = icmp ne i32 %9, 0
  br i1 %10, label %11, label %20

11:                                               ; preds = %4
  %12 = load i64, ptr %3, align 8
  %13 = add i64 %12, 1
  store i64 %13, ptr %3, align 8
  %14 = load i64, ptr %3, align 8
  %15 = icmp ult i64 %14, 8
  br i1 %15, label %16, label %17

16:                                               ; preds = %11
  br label %19

17:                                               ; preds = %11
  call void (ptr, ...) @proto_report_dissector_bug(ptr noundef @.str, ptr noundef @.str.1, i32 noundef 189, ptr noundef @.str.28) #13
  unreachable

18:                                               ; No predecessors!
  br label %19

19:                                               ; preds = %18, %16
  br label %4, !llvm.loop !9

20:                                               ; preds = %4
  %21 = load i64, ptr %3, align 8
  %22 = add i64 %21, 1
  store i64 %22, ptr %3, align 8
  %23 = load i64, ptr %3, align 8
  %24 = icmp ugt i64 %23, 1
  br i1 %24, label %25, label %26

25:                                               ; preds = %20
  br label %28

26:                                               ; preds = %20
  call void (ptr, ...) @proto_report_dissector_bug(ptr noundef @.str, ptr noundef @.str.1, i32 noundef 193, ptr noundef @.str.29) #13
  unreachable

27:                                               ; No predecessors!
  br label %28

28:                                               ; preds = %27, %25
  %29 = load i64, ptr %3, align 8
  call void @llvm.lifetime.end.p0(i64 8, ptr %3) #12
  ret i64 %29
}

; Function Attrs: null_pointer_is_valid sspstrong uwtable
define ptr @conversation_new_full(i32 noundef %0, ptr noundef %1) #0 {
  %3 = alloca i32, align 4
  %4 = alloca ptr, align 8
  %5 = alloca ptr, align 8
  %6 = alloca ptr, align 8
  %7 = alloca i64, align 8
  %8 = alloca ptr, align 8
  %9 = alloca i64, align 8
  %10 = alloca ptr, align 8
  store i32 %0, ptr %3, align 4
  store ptr %1, ptr %4, align 8
  %11 = load ptr, ptr %4, align 8
  %12 = icmp ne ptr %11, null
  br i1 %12, label %13, label %14

13:                                               ; preds = %2
  br label %16

14:                                               ; preds = %2
  call void (ptr, ...) @proto_report_dissector_bug(ptr noundef @.str, ptr noundef @.str.1, i32 noundef 866, ptr noundef @.str.2) #13
  unreachable

15:                                               ; No predecessors!
  br label %16

16:                                               ; preds = %15, %13
  call void @llvm.lifetime.start.p0(i64 8, ptr %5) #12
  %17 = call ptr @wmem_epan_scope()
  %18 = load ptr, ptr %4, align 8
  %19 = call ptr @conversation_element_list_name(ptr noundef %17, ptr noundef %18)
  store ptr %19, ptr %5, align 8
  call void @llvm.lifetime.start.p0(i64 8, ptr %6) #12
  %20 = load ptr, ptr @conversation_hashtable_element_list, align 8
  %21 = load ptr, ptr %5, align 8
  %22 = call ptr @wmem_map_lookup(ptr noundef %20, ptr noundef %21)
  store ptr %22, ptr %6, align 8
  %23 = load ptr, ptr %6, align 8
  %24 = icmp ne ptr %23, null
  br i1 %24, label %35, label %25

25:                                               ; preds = %16
  %26 = call ptr @wmem_epan_scope()
  %27 = call ptr @wmem_file_scope()
  %28 = call noalias ptr @wmem_map_new_autoreset(ptr noundef %26, ptr noundef %27, ptr noundef @conversation_hash_element_list, ptr noundef @conversation_match_element_list)
  store ptr %28, ptr %6, align 8
  %29 = load ptr, ptr @conversation_hashtable_element_list, align 8
  %30 = call ptr @wmem_epan_scope()
  %31 = load ptr, ptr %5, align 8
  %32 = call noalias ptr @wmem_strdup(ptr noundef %30, ptr noundef %31)
  %33 = load ptr, ptr %6, align 8
  %34 = call ptr @wmem_map_insert(ptr noundef %29, ptr noundef %32, ptr noundef %33)
  br label %35

35:                                               ; preds = %25, %16
  call void @llvm.lifetime.start.p0(i64 8, ptr %7) #12
  %36 = load ptr, ptr %4, align 8
  %37 = call i64 @conversation_element_count(ptr noundef %36)
  store i64 %37, ptr %7, align 8
  call void @llvm.lifetime.start.p0(i64 8, ptr %8) #12
  %38 = call ptr @wmem_file_scope()
  %39 = load ptr, ptr %4, align 8
  %40 = load i64, ptr %7, align 8
  %41 = mul i64 32, %40
  %42 = call ptr @wmem_memdup(ptr noundef %38, ptr noundef %39, i64 noundef %41) #15
  store ptr %42, ptr %8, align 8
  call void @llvm.lifetime.start.p0(i64 8, ptr %9) #12
  store i64 0, ptr %9, align 8
  br label %43

43:                                               ; preds = %114, %35
  %44 = load i64, ptr %9, align 8
  %45 = load i64, ptr %7, align 8
  %46 = icmp ult i64 %44, %45
  br i1 %46, label %48, label %47

47:                                               ; preds = %43
  call void @llvm.lifetime.end.p0(i64 8, ptr %9) #12
  br label %117

48:                                               ; preds = %43
  %49 = load ptr, ptr %8, align 8
  %50 = load i64, ptr %9, align 8
  %51 = getelementptr %struct.conversation_element, ptr %49, i64 %50
  %52 = getelementptr inbounds nuw %struct.conversation_element, ptr %51, i32 0, i32 0
  %53 = load i32, ptr %52, align 8
  %54 = icmp eq i32 %53, 1
  br i1 %54, label %55, label %65

55:                                               ; preds = %48
  %56 = call ptr @wmem_file_scope()
  %57 = load ptr, ptr %8, align 8
  %58 = load i64, ptr %9, align 8
  %59 = getelementptr %struct.conversation_element, ptr %57, i64 %58
  %60 = getelementptr inbounds nuw %struct.conversation_element, ptr %59, i32 0, i32 1
  %61 = load ptr, ptr %4, align 8
  %62 = load i64, ptr %9, align 8
  %63 = getelementptr %struct.conversation_element, ptr %61, i64 %62
  %64 = getelementptr inbounds nuw %struct.conversation_element, ptr %63, i32 0, i32 1
  call void @copy_address_wmem(ptr noundef %56, ptr noundef %60, ptr noundef %64)
  br label %113

65:                                               ; preds = %48
  %66 = load ptr, ptr %8, align 8
  %67 = load i64, ptr %9, align 8
  %68 = getelementptr %struct.conversation_element, ptr %66, i64 %67
  %69 = getelementptr inbounds nuw %struct.conversation_element, ptr %68, i32 0, i32 0
  %70 = load i32, ptr %69, align 8
  %71 = icmp eq i32 %70, 3
  br i1 %71, label %72, label %84

72:                                               ; preds = %65
  %73 = call ptr @wmem_file_scope()
  %74 = load ptr, ptr %4, align 8
  %75 = load i64, ptr %9, align 8
  %76 = getelementptr %struct.conversation_element, ptr %74, i64 %75
  %77 = getelementptr inbounds nuw %struct.conversation_element, ptr %76, i32 0, i32 1
  %78 = load ptr, ptr %77, align 8
  %79 = call noalias ptr @wmem_strdup(ptr noundef %73, ptr noundef %78)
  %80 = load ptr, ptr %8, align 8
  %81 = load i64, ptr %9, align 8
  %82 = getelementptr %struct.conversation_element, ptr %80, i64 %81
  %83 = getelementptr inbounds nuw %struct.conversation_element, ptr %82, i32 0, i32 1
  store ptr %79, ptr %83, align 8
  br label %112

84:                                               ; preds = %65
  %85 = load ptr, ptr %8, align 8
  %86 = load i64, ptr %9, align 8
  %87 = getelementptr %struct.conversation_element, ptr %85, i64 %86
  %88 = getelementptr inbounds nuw %struct.conversation_element, ptr %87, i32 0, i32 0
  %89 = load i32, ptr %88, align 8
  %90 = icmp eq i32 %89, 8
  br i1 %90, label %91, label %111

91:                                               ; preds = %84
  %92 = call ptr @wmem_file_scope()
  %93 = load ptr, ptr %4, align 8
  %94 = load i64, ptr %9, align 8
  %95 = getelementptr %struct.conversation_element, ptr %93, i64 %94
  %96 = getelementptr inbounds nuw %struct.conversation_element, ptr %95, i32 0, i32 1
  %97 = getelementptr inbounds nuw %struct.anon, ptr %96, i32 0, i32 0
  %98 = load ptr, ptr %97, align 8
  %99 = load ptr, ptr %4, align 8
  %100 = load i64, ptr %9, align 8
  %101 = getelementptr %struct.conversation_element, ptr %99, i64 %100
  %102 = getelementptr inbounds nuw %struct.conversation_element, ptr %101, i32 0, i32 1
  %103 = getelementptr inbounds nuw %struct.anon, ptr %102, i32 0, i32 1
  %104 = load i64, ptr %103, align 8
  %105 = call ptr @wmem_memdup(ptr noundef %92, ptr noundef %98, i64 noundef %104) #15
  %106 = load ptr, ptr %8, align 8
  %107 = load i64, ptr %9, align 8
  %108 = getelementptr %struct.conversation_element, ptr %106, i64 %107
  %109 = getelementptr inbounds nuw %struct.conversation_element, ptr %108, i32 0, i32 1
  %110 = getelementptr inbounds nuw %struct.anon, ptr %109, i32 0, i32 0
  store ptr %105, ptr %110, align 8
  br label %111

111:                                              ; preds = %91, %84
  br label %112

112:                                              ; preds = %111, %72
  br label %113

113:                                              ; preds = %112, %55
  br label %114

114:                                              ; preds = %113
  %115 = load i64, ptr %9, align 8
  %116 = add i64 %115, 1
  store i64 %116, ptr %9, align 8
  br label %43, !llvm.loop !8

117:                                              ; preds = %47
  call void @llvm.lifetime.start.p0(i64 8, ptr %10) #12
  %118 = call ptr @wmem_file_scope()
  %119 = call noalias ptr @wmem_alloc0(ptr noundef %118, i64 noundef 72) #16
  store ptr %119, ptr %10, align 8
  %120 = load i32, ptr @new_index, align 4
  %121 = load ptr, ptr %10, align 8
  %122 = getelementptr inbounds nuw %struct.conversation, ptr %121, i32 0, i32 3
  store i32 %120, ptr %122, align 8
  %123 = load i32, ptr %3, align 4
  %124 = load ptr, ptr %10, align 8
  %125 = getelementptr inbounds nuw %struct.conversation, ptr %124, i32 0, i32 5
  store i32 %123, ptr %125, align 8
  %126 = load ptr, ptr %10, align 8
  %127 = getelementptr inbounds nuw %struct.conversation, ptr %126, i32 0, i32 4
  store i32 %123, ptr %127, align 4
  %128 = load i32, ptr @new_index, align 4
  %129 = add i32 %128, 1
  store i32 %129, ptr @new_index, align 4
  %130 = load ptr, ptr %8, align 8
  %131 = load ptr, ptr %10, align 8
  %132 = getelementptr inbounds nuw %struct.conversation, ptr %131, i32 0, i32 9
  store ptr %130, ptr %132, align 8
  %133 = load ptr, ptr %6, align 8
  %134 = load ptr, ptr %10, align 8
  call void @conversation_insert_into_hashtable(ptr noundef %133, ptr noundef %134)
  %135 = load ptr, ptr %10, align 8
  call void @llvm.lifetime.end.p0(i64 8, ptr %10) #12
  call void @llvm.lifetime.end.p0(i64 8, ptr %8) #12
  call void @llvm.lifetime.end.p0(i64 8, ptr %7) #12
  call void @llvm.lifetime.end.p0(i64 8, ptr %6) #12
  call void @llvm.lifetime.end.p0(i64 8, ptr %5) #12
  ret ptr %135
}