; Function Attrs: null_pointer_is_valid sspstrong uwtable
define noundef ptr @conversation_new_full(i32 noundef %0, ptr noundef %1) local_unnamed_addr #0 {
  %.not = icmp eq ptr %1, null
  br i1 %.not, label %3, label %4

3:                                                ; preds = %2
  tail call void (ptr, ...) @proto_report_dissector_bug(ptr noundef nonnull @.str, ptr noundef nonnull @.str.1, i32 noundef 866, ptr noundef nonnull @.str.2) #16
  unreachable

4:                                                ; preds = %2
  %5 = tail call ptr @wmem_epan_scope()
  %6 = tail call fastcc ptr @conversation_element_list_name(ptr noundef %5, ptr noundef nonnull %1)
  %7 = load ptr, ptr @conversation_hashtable_element_list, align 8
  %8 = tail call ptr @wmem_map_lookup(ptr noundef %7, ptr noundef %6)
  %.not44 = icmp eq ptr %8, null
  br i1 %.not44, label %9, label %17

9:                                                ; preds = %4
  %10 = tail call ptr @wmem_epan_scope()
  %11 = tail call ptr @wmem_file_scope()
  %12 = tail call noalias ptr @wmem_map_new_autoreset(ptr noundef %10, ptr noundef %11, ptr noundef nonnull @conversation_hash_element_list, ptr noundef nonnull @conversation_match_element_list)
  %13 = load ptr, ptr @conversation_hashtable_element_list, align 8
  %14 = tail call ptr @wmem_epan_scope()
  %15 = tail call noalias ptr @wmem_strdup(ptr noundef %14, ptr noundef %6)
  %16 = tail call ptr @wmem_map_insert(ptr noundef %13, ptr noundef %15, ptr noundef %12)
  br label %17

17:                                               ; preds = %9, %4
  %.0 = phi ptr [ %8, %4 ], [ %12, %9 ]
  br label %18

18:                                               ; preds = %21, %17
  %indvars.iv = phi i64 [ %indvars.iv.next, %21 ], [ 1, %17 ]
  %.0.i = phi i64 [ %22, %21 ], [ 0, %17 ]
  %19 = getelementptr %struct.conversation_element, ptr %1, i64 %.0.i
  %20 = load i32, ptr %19, align 8
  %.not.i = icmp eq i32 %20, 0
  br i1 %.not.i, label %24, label %21

21:                                               ; preds = %18
  %22 = add nuw nsw i64 %.0.i, 1
  %exitcond.not.i = icmp eq i64 %22, 8
  %indvars.iv.next = add nuw nsw i64 %indvars.iv, 1
  br i1 %exitcond.not.i, label %23, label %18, !llvm.loop !6

23:                                               ; preds = %21
  tail call void (ptr, ...) @proto_report_dissector_bug(ptr noundef nonnull @.str, ptr noundef nonnull @.str.1, i32 noundef 189, ptr noundef nonnull @.str.28) #16
  unreachable

24:                                               ; preds = %18
  %.not8.i = icmp eq i64 %.0.i, 0
  br i1 %.not8.i, label %25, label %conversation_element_count.exit

25:                                               ; preds = %24
  tail call void (ptr, ...) @proto_report_dissector_bug(ptr noundef nonnull @.str, ptr noundef nonnull @.str.1, i32 noundef 193, ptr noundef nonnull @.str.29) #16
  unreachable

conversation_element_count.exit:                  ; preds = %24
  %26 = tail call ptr @wmem_file_scope()
  %27 = shl i64 %.0.i, 5
  %28 = add i64 %27, 32
  %29 = tail call ptr @wmem_memdup(ptr noundef %26, ptr noundef nonnull %1, i64 noundef %28) #18
  br label %39

30:                                               ; preds = %copy_address_wmem.exit
  %31 = tail call ptr @wmem_file_scope()
  %32 = tail call noalias dereferenceable_or_null(72) ptr @wmem_alloc0(ptr noundef %31, i64 noundef 72) #19
  %33 = load i32, ptr @new_index, align 4
  %34 = getelementptr inbounds nuw i8, ptr %32, i64 24
  store i32 %33, ptr %34, align 8
  %35 = getelementptr inbounds nuw i8, ptr %32, i64 32
  store i32 %0, ptr %35, align 8
  %36 = getelementptr inbounds nuw i8, ptr %32, i64 28
  store i32 %0, ptr %36, align 4
  %37 = add i32 %33, 1
  store i32 %37, ptr @new_index, align 4
  %38 = getelementptr inbounds nuw i8, ptr %32, i64 64
  store ptr %29, ptr %38, align 8
  tail call fastcc void @conversation_insert_into_hashtable(ptr noundef %.0, ptr noundef %32)
  ret ptr %32

39:                                               ; preds = %conversation_element_count.exit, %copy_address_wmem.exit
  %.04047 = phi i64 [ 0, %conversation_element_count.exit ], [ %72, %copy_address_wmem.exit ]
  %40 = getelementptr %struct.conversation_element, ptr %29, i64 %.04047
  %41 = load i32, ptr %40, align 8
  switch i32 %41, label %copy_address_wmem.exit [
    i32 1, label %42
    i32 3, label %58
    i32 8, label %64
  ]

42:                                               ; preds = %39
  %43 = tail call ptr @wmem_file_scope()
  %44 = getelementptr inbounds nuw i8, ptr %40, i64 8
  %45 = getelementptr %struct.conversation_element, ptr %1, i64 %.04047, i32 1
  %46 = load i32, ptr %45, align 8
  %47 = getelementptr inbounds nuw i8, ptr %45, i64 4
  %48 = load i32, ptr %47, align 4
  %49 = getelementptr inbounds nuw i8, ptr %45, i64 8
  %50 = load ptr, ptr %49, align 8
  tail call void @llvm.memset.p0.i64(ptr noundef nonnull align 8 dereferenceable(24) %44, i8 0, i64 24, i1 false)
  store i32 %46, ptr %44, align 8
  %51 = icmp eq i32 %48, 0
  br i1 %51, label %copy_address_wmem.exit, label %52

52:                                               ; preds = %42
  %53 = sext i32 %48 to i64
  %54 = tail call ptr @wmem_memdup(ptr noundef %43, ptr noundef %50, i64 noundef %53) #18
  %55 = getelementptr inbounds nuw i8, ptr %40, i64 24
  store ptr %54, ptr %55, align 8
  %56 = getelementptr inbounds nuw i8, ptr %40, i64 16
  store ptr %54, ptr %56, align 8
  %57 = getelementptr inbounds nuw i8, ptr %40, i64 12
  store i32 %48, ptr %57, align 4
  br label %copy_address_wmem.exit

58:                                               ; preds = %39
  %59 = tail call ptr @wmem_file_scope()
  %60 = getelementptr %struct.conversation_element, ptr %1, i64 %.04047, i32 1
  %61 = load ptr, ptr %60, align 8
  %62 = tail call noalias ptr @wmem_strdup(ptr noundef %59, ptr noundef %61)
  %63 = getelementptr inbounds nuw i8, ptr %40, i64 8
  store ptr %62, ptr %63, align 8
  br label %copy_address_wmem.exit

64:                                               ; preds = %39
  %65 = tail call ptr @wmem_file_scope()
  %66 = getelementptr %struct.conversation_element, ptr %1, i64 %.04047, i32 1
  %67 = load ptr, ptr %66, align 8
  %68 = getelementptr inbounds nuw i8, ptr %66, i64 8
  %69 = load i64, ptr %68, align 8
  %70 = tail call ptr @wmem_memdup(ptr noundef %65, ptr noundef %67, i64 noundef %69) #18
  %71 = getelementptr inbounds nuw i8, ptr %40, i64 8
  store ptr %70, ptr %71, align 8
  br label %copy_address_wmem.exit

copy_address_wmem.exit:                           ; preds = %52, %42, %39, %64, %58
  %72 = add nuw nsw i64 %.04047, 1
  %exitcond.not = icmp eq i64 %72, %indvars.iv
  br i1 %exitcond.not, label %30, label %39, !llvm.loop !10
}